S') on Thursday continued his outreach to Christian conservatives, telling a gathering of them that the United States is effectively funding wars on Christianity by sending money to nations like Egypt and Syria.\nPaul said the U.\nShould we be sending F-16s and tanks to Egypt when (President Mohammed) Morsi says Jews are descendants of apes and pigs?'
p0
.