S"With my birthday just around the corner, I got to thinking about growing up and what's expected of you at a certain age.\nSome of these things I have done, some I have probably always felt too old to do, and some I have simply missed my window for."
p0
.