S'- courtesy of GOOGLE ) .He seized it with a golden arm in 1955 and, with a powerful visual fist, grabbed the attention and lapel of the American moviegoer.\nIt was time to take notice: Film title sequences would no longer be a perfunctory affair.\nBesides operating on an intellectual level, the visual was also the visceral.'
p0
.