S"Guillermo del Toro's upcoming Pacific Rim is the robot versus monsters mashup we've all been waiting for.\nBut the origins of the giant mechas hasn't been explained until now, which are obviously influenced heavily by anime."
p0
.